Certificate:
    Data:
        Version: 3 (0x2)
        Serial Number:
            d5:68:27:79:e5:77:e6:36:49:e0:f8:aa:bc:d9:e5:5a
    Signature Algorithm: sha256WithRSAEncryption
        Issuer: CN=hostopenvpn
        Validity
            Not Before: Feb 13 09:22:23 2019 GMT
            Not After : Jan 28 09:22:23 2022 GMT
        Subject: CN=clientcomname
        Subject Public Key Info:
            Public Key Algorithm: rsaEncryption
                Public-Key: (2048 bit)
                Modulus:
                    00:c0:d7:a2:d5:17:cd:f6:95:7d:b1:ba:00:45:75:
                    8a:48:0d:c4:2f:f0:80:e8:bd:51:14:a4:8e:9c:e5:
                    44:d5:c8:38:58:24:d7:4f:cf:8a:e6:fe:0e:e7:51:
                    38:4e:31:34:0f:04:61:4b:54:25:15:70:96:ce:fd:
                    90:4e:cc:b2:cb:2f:7b:d8:6f:77:b5:da:21:49:b1:
                    3c:fa:d4:b7:aa:8b:1e:a8:9d:b7:56:70:f8:03:f8:
                    c3:20:c1:73:22:0e:8f:6b:e7:c7:20:63:b3:a5:a0:
                    bc:c3:05:ba:11:7b:4b:47:e3:ee:54:45:9c:a6:23:
                    2b:eb:d8:4f:c7:73:92:19:8c:79:f2:e0:ff:45:9a:
                    87:6c:38:7e:64:c3:b0:dc:01:f6:d8:ce:92:fe:59:
                    d3:10:4f:1b:eb:05:2d:b5:09:cf:49:eb:51:70:0f:
                    38:53:24:0f:7a:f8:e8:8c:43:75:68:36:0e:0d:94:
                    46:84:42:0a:42:4d:02:e9:c8:c9:25:06:5a:14:7b:
                    13:4e:9e:07:0b:eb:59:fa:57:f1:33:e9:78:bc:2d:
                    27:0c:ed:b3:77:7e:8e:e7:a4:be:78:06:1c:99:c0:
                    24:86:f9:9f:db:e5:cd:d7:3a:51:43:cf:bc:90:fc:
                    35:10:08:c5:8c:55:96:4d:ff:27:8e:d4:da:1c:6a:
                    4f:d9
                Exponent: 65537 (0x10001)
        X509v3 extensions:
            X509v3 Basic Constraints: 
                CA:FALSE
            X509v3 Subject Key Identifier: 
                CA:EB:7A:4B:CA:75:DD:69:E3:FD:26:E6:07:12:36:C9:F1:3E:8C:98
            X509v3 Authority Key Identifier: 
                keyid:DA:9D:9C:17:4A:30:52:5E:15:32:AC:B6:1E:DB:43:89:E7:95:6C:0A
                DirName:/CN=hostopenvpn
                serial:C4:A7:F2:B9:23:78:01:AC

            X509v3 Extended Key Usage: 
                TLS Web Client Authentication
            X509v3 Key Usage: 
                Digital Signature
    Signature Algorithm: sha256WithRSAEncryption
         b8:f8:25:a6:8f:d8:50:6d:36:0b:19:e0:b7:da:4b:1f:3f:0f:
         12:8c:a8:7e:a9:96:79:41:81:86:68:87:e0:dd:e4:fd:ca:06:
         d5:34:d3:64:6a:21:25:b2:cc:fd:46:5a:cd:af:ba:3e:63:59:
         02:6f:56:d9:de:57:cc:e3:93:dc:c7:19:7c:cb:9e:87:cd:f1:
         8d:4b:d0:8e:64:a6:6f:c9:1c:1c:53:b3:98:72:9d:74:44:1a:
         0c:33:db:46:09:3a:04:28:1e:7c:ce:ba:a9:19:87:2d:a6:e7:
         65:f2:65:e7:6c:84:86:36:ea:cd:a3:72:aa:0b:59:70:bc:36:
         49:68:49:ee:90:1a:ae:09:26:6d:b3:b1:d5:63:9e:85:63:5f:
         ea:bd:9b:b1:3e:d8:52:69:ef:c3:d5:ee:ea:4c:c1:06:b5:85:
         db:4a:f5:0a:8f:a4:9e:ff:13:2f:ff:d2:64:a4:f9:be:16:00:
         e0:1b:f6:e1:6a:03:89:03:e6:aa:24:88:56:d0:81:bd:a2:85:
         df:11:6c:a8:73:01:62:99:60:97:5c:73:56:5c:04:0f:fd:72:
         5a:00:b0:74:2c:16:c8:62:ab:40:3a:74:0b:3d:6f:01:29:b7:
         43:d2:9d:e4:05:32:30:2c:ec:64:4d:22:f3:67:c9:d7:a4:b1:
         48:7c:28:c2
-----BEGIN CERTIFICATE-----
MIIDUTCCAjmgAwIBAgIRANVoJ3nld+Y2SeD4qrzZ5VowDQYJKoZIhvcNAQELBQAw
FjEUMBIGA1UEAwwLaG9zdG9wZW52cG4wHhcNMTkwMjEzMDkyMjIzWhcNMjIwMTI4
MDkyMjIzWjAYMRYwFAYDVQQDDA1jbGllbnRjb21uYW1lMIIBIjANBgkqhkiG9w0B
AQEFAAOCAQ8AMIIBCgKCAQEAwNei1RfN9pV9sboARXWKSA3EL/CA6L1RFKSOnOVE
1cg4WCTXT8+K5v4O51E4TjE0DwRhS1QlFXCWzv2QTsyyyy972G93tdohSbE8+tS3
qoseqJ23VnD4A/jDIMFzIg6Pa+fHIGOzpaC8wwW6EXtLR+PuVEWcpiMr69hPx3OS
GYx58uD/RZqHbDh+ZMOw3AH22M6S/lnTEE8b6wUttQnPSetRcA84UyQPevjojEN1
aDYODZRGhEIKQk0C6cjJJQZaFHsTTp4HC+tZ+lfxM+l4vC0nDO2zd36O56S+eAYc
mcAkhvmf2+XN1zpRQ8+8kPw1EAjFjFWWTf8njtTaHGpP2QIDAQABo4GXMIGUMAkG
A1UdEwQCMAAwHQYDVR0OBBYEFMrrekvKdd1p4/0m5gcSNsnxPoyYMEYGA1UdIwQ/
MD2AFNqdnBdKMFJeFTKsth7bQ4nnlWwKoRqkGDAWMRQwEgYDVQQDDAtob3N0b3Bl
bnZwboIJAMSn8rkjeAGsMBMGA1UdJQQMMAoGCCsGAQUFBwMCMAsGA1UdDwQEAwIH
gDANBgkqhkiG9w0BAQsFAAOCAQEAuPglpo/YUG02Cxngt9pLHz8PEoyofqmWeUGB
hmiH4N3k/coG1TTTZGohJbLM/UZaza+6PmNZAm9W2d5XzOOT3McZfMueh83xjUvQ
jmSmb8kcHFOzmHKddEQaDDPbRgk6BCgefM66qRmHLabnZfJl52yEhjbqzaNyqgtZ
cLw2SWhJ7pAargkmbbOx1WOehWNf6r2bsT7YUmnvw9Xu6kzBBrWF20r1Co+knv8T
L//SZKT5vhYA4Bv24WoDiQPmqiSIVtCBvaKF3xFsqHMBYplgl1xzVlwED/1yWgCw
dCwWyGKrQDp0Cz1vASm3Q9Kd5AUyMCzsZE0i82fJ16SxSHwowg==
-----END CERTIFICATE-----
