Certificate:
    Data:
        Version: 3 (0x2)
        Serial Number:
            ae:84:d2:db:6a:74:31:02:0d:d7:b0:fd:a0:4e:99:ec
    Signature Algorithm: sha256WithRSAEncryption
        Issuer: CN=hostCA
        Validity
            Not Before: Feb 14 05:25:53 2019 GMT
            Not After : Jan 29 05:25:53 2022 GMT
        Subject: CN=clienthost
        Subject Public Key Info:
            Public Key Algorithm: rsaEncryption
                Public-Key: (2048 bit)
                Modulus:
                    00:ec:17:61:e6:7b:79:c7:d0:01:3f:4e:0b:26:68:
                    57:af:e2:62:9b:2d:f2:b4:75:66:6d:61:27:63:ef:
                    9d:f3:9f:9b:76:fb:8c:3b:f5:20:54:83:50:91:69:
                    87:ca:fd:aa:d8:f1:ca:69:58:44:d6:4e:cf:cb:ae:
                    fe:5f:53:e0:cf:f1:41:67:4d:74:1c:72:ff:21:4f:
                    43:30:a3:01:e9:07:04:6b:7c:95:be:f7:c5:84:37:
                    ce:4e:e8:eb:28:3a:d5:e2:8d:40:63:51:ad:a5:99:
                    54:49:0d:dd:50:0e:bf:ec:25:22:de:15:b1:02:80:
                    d8:fe:e3:22:e6:4a:e4:a1:9d:f5:b0:5b:f6:c9:81:
                    b5:09:01:33:4e:c1:77:44:0f:94:09:42:a2:d6:7f:
                    bf:bc:ce:60:0d:31:46:63:79:d0:16:6f:38:7e:05:
                    85:8a:05:5a:aa:9d:68:6e:29:17:80:ea:9d:4f:73:
                    4e:84:9a:b8:59:40:87:9c:dc:3a:55:40:68:67:7b:
                    32:ab:5b:db:23:7c:e9:a4:73:33:10:fc:7e:75:42:
                    cb:5c:2d:c5:33:aa:db:ea:d0:d6:13:4e:e2:29:7b:
                    87:19:3d:12:7e:48:bd:94:4d:01:bb:54:ce:34:bf:
                    59:ed:c1:84:37:6b:2e:50:dd:25:c7:0c:d7:9e:d4:
                    cc:47
                Exponent: 65537 (0x10001)
        X509v3 extensions:
            X509v3 Basic Constraints: 
                CA:FALSE
            X509v3 Subject Key Identifier: 
                40:C4:E2:96:2D:74:D9:CE:8E:0E:C4:A6:AE:C1:32:9C:07:AF:6F:7E
            X509v3 Authority Key Identifier: 
                keyid:64:A1:D8:0B:36:A3:55:7E:BE:AE:61:0B:4B:B5:36:FA:77:68:FD:F2
                DirName:/CN=hostCA
                serial:A8:F9:4C:AD:FF:12:A4:17

            X509v3 Extended Key Usage: 
                TLS Web Client Authentication
            X509v3 Key Usage: 
                Digital Signature
    Signature Algorithm: sha256WithRSAEncryption
         b7:7f:2b:76:bf:85:54:d4:28:2b:86:e3:62:78:ca:39:c8:71:
         67:00:f7:11:65:95:5b:ca:91:f4:f1:97:38:00:01:01:73:9b:
         66:a1:69:7f:16:d7:08:0f:85:9a:c7:25:9e:28:5a:e9:de:4b:
         96:d0:4f:9b:83:9c:a0:de:f1:6b:69:55:2c:ec:26:71:d2:f2:
         cf:66:96:47:0c:9e:c8:6a:73:2b:4d:24:65:31:74:5c:2f:11:
         89:3b:da:4d:91:3e:e1:31:01:87:80:a3:eb:b5:7e:6a:13:bc:
         ec:ea:af:de:9d:19:42:56:fe:58:e9:1c:4c:f8:7b:11:e3:0a:
         68:31:22:04:a2:c7:e9:86:03:2a:53:43:bb:fd:9a:a3:79:2f:
         d6:0a:9b:82:fd:57:11:1f:7d:34:68:5c:5c:86:31:1a:6c:e9:
         39:88:76:b3:4c:d6:79:bd:35:f9:1e:d6:f0:de:80:96:44:c8:
         da:bb:cf:52:f5:95:26:60:2d:4a:23:d9:6b:26:86:15:b6:6c:
         08:e2:ff:90:6b:21:29:9d:96:22:d5:f9:51:6c:25:72:64:47:
         5b:8a:32:30:1f:f1:3e:07:57:b5:e4:c3:70:ce:ba:49:0a:60:
         cd:37:04:2e:3a:67:b4:0c:37:57:09:b3:e0:a3:94:94:b9:ce:
         33:30:44:a4
-----BEGIN CERTIFICATE-----
MIIDRDCCAiygAwIBAgIRAK6E0ttqdDECDdew/aBOmewwDQYJKoZIhvcNAQELBQAw
ETEPMA0GA1UEAwwGaG9zdENBMB4XDTE5MDIxNDA1MjU1M1oXDTIyMDEyOTA1MjU1
M1owFTETMBEGA1UEAwwKY2xpZW50aG9zdDCCASIwDQYJKoZIhvcNAQEBBQADggEP
ADCCAQoCggEBAOwXYeZ7ecfQAT9OCyZoV6/iYpst8rR1Zm1hJ2PvnfOfm3b7jDv1
IFSDUJFph8r9qtjxymlYRNZOz8uu/l9T4M/xQWdNdBxy/yFPQzCjAekHBGt8lb73
xYQ3zk7o6yg61eKNQGNRraWZVEkN3VAOv+wlIt4VsQKA2P7jIuZK5KGd9bBb9smB
tQkBM07Bd0QPlAlCotZ/v7zOYA0xRmN50BZvOH4FhYoFWqqdaG4pF4DqnU9zToSa
uFlAh5zcOlVAaGd7Mqtb2yN86aRzMxD8fnVCy1wtxTOq2+rQ1hNO4il7hxk9En5I
vZRNAbtUzjS/We3BhDdrLlDdJccM157UzEcCAwEAAaOBkjCBjzAJBgNVHRMEAjAA
MB0GA1UdDgQWBBRAxOKWLXTZzo4OxKauwTKcB69vfjBBBgNVHSMEOjA4gBRkodgL
NqNVfr6uYQtLtTb6d2j98qEVpBMwETEPMA0GA1UEAwwGaG9zdENBggkAqPlMrf8S
pBcwEwYDVR0lBAwwCgYIKwYBBQUHAwIwCwYDVR0PBAQDAgeAMA0GCSqGSIb3DQEB
CwUAA4IBAQC3fyt2v4VU1CgrhuNieMo5yHFnAPcRZZVbypH08Zc4AAEBc5tmoWl/
FtcID4WaxyWeKFrp3kuW0E+bg5yg3vFraVUs7CZx0vLPZpZHDJ7IanMrTSRlMXRc
LxGJO9pNkT7hMQGHgKPrtX5qE7zs6q/enRlCVv5Y6RxM+HsR4wpoMSIEosfphgMq
U0O7/ZqjeS/WCpuC/VcRH300aFxchjEabOk5iHazTNZ5vTX5Htbw3oCWRMjau89S
9ZUmYC1KI9lrJoYVtmwI4v+QayEpnZYi1flRbCVyZEdbijIwH/E+B1e15MNwzrpJ
CmDNNwQuOme0DDdXCbPgo5SUuc4zMESk
-----END CERTIFICATE-----
