Certificate:
    Data:
        Version: 3 (0x2)
        Serial Number:
            4b:cd:a4:7b:4e:b9:ca:99:5a:c8:34:3d:f9:40:1a:8b
    Signature Algorithm: sha256WithRSAEncryption
        Issuer: CN=hostopenvpn
        Validity
            Not Before: Feb 13 09:05:40 2019 GMT
            Not After : Jan 28 09:05:40 2022 GMT
        Subject: CN=servercommonname
        Subject Public Key Info:
            Public Key Algorithm: rsaEncryption
                Public-Key: (2048 bit)
                Modulus:
                    00:a8:bf:e3:55:e0:e7:67:ac:e4:e2:ea:66:5c:82:
                    48:7d:9c:bc:76:20:2f:9c:18:94:9e:80:e1:6c:47:
                    dc:a7:3b:e6:27:75:7b:47:92:69:f7:a5:80:b8:5a:
                    ec:4d:ee:b1:c3:39:30:18:a3:27:6d:37:0c:d0:00:
                    a6:15:44:cb:07:04:0e:ef:92:3b:c1:48:c5:47:da:
                    ff:23:44:2a:d0:08:b1:9e:45:b2:e6:47:30:00:89:
                    92:bb:dc:14:a3:e6:d1:0f:1d:ca:80:7c:00:7f:45:
                    64:26:3e:57:cd:98:2c:d3:fd:36:63:8e:95:a9:9d:
                    9b:f8:2e:1b:a3:df:11:eb:ce:55:d9:c9:c0:b2:5a:
                    4f:ea:83:da:6b:32:67:46:12:60:5d:f1:22:a1:d3:
                    65:ba:f1:0a:2e:0b:50:be:01:6a:1f:7c:1a:c4:57:
                    75:71:dc:0c:8d:2b:ed:4e:5d:55:a1:d8:92:f6:4c:
                    47:20:0f:00:cd:0c:09:12:03:02:53:09:c6:ff:ac:
                    95:34:f2:bb:1b:24:08:33:a1:1d:ef:d2:de:b7:f4:
                    09:79:4c:b7:fa:ba:88:d5:22:7a:ac:6f:23:3f:a4:
                    2e:81:28:01:46:ed:da:26:f3:21:47:ee:8b:9b:6f:
                    e1:cc:b4:9a:ab:2b:c0:79:52:5a:40:4e:82:54:70:
                    48:ad
                Exponent: 65537 (0x10001)
        X509v3 extensions:
            X509v3 Basic Constraints: 
                CA:FALSE
            X509v3 Subject Key Identifier: 
                EF:9F:91:C4:8E:6C:BF:4C:11:6B:32:F2:E2:07:89:AE:A8:93:E1:B2
            X509v3 Authority Key Identifier: 
                keyid:DA:9D:9C:17:4A:30:52:5E:15:32:AC:B6:1E:DB:43:89:E7:95:6C:0A
                DirName:/CN=hostopenvpn
                serial:C4:A7:F2:B9:23:78:01:AC

            X509v3 Extended Key Usage: 
                TLS Web Server Authentication
            X509v3 Key Usage: 
                Digital Signature, Key Encipherment
            X509v3 Subject Alternative Name: 
                DNS:servercommonname
    Signature Algorithm: sha256WithRSAEncryption
         2b:f4:ea:12:21:49:a7:ff:3d:e4:ec:f1:30:67:f8:79:31:f7:
         6e:e4:c1:f1:8a:bd:7e:17:92:7a:68:59:08:15:3e:3e:9f:1f:
         ca:69:48:c5:27:e3:2a:a6:f4:c0:16:ef:58:de:ea:18:1d:e9:
         4b:52:48:f6:78:e6:ef:0c:d0:5a:5d:a6:ca:bc:96:75:a3:66:
         68:56:18:91:cf:fc:0e:2b:c4:46:8a:80:bf:c1:86:93:f8:0c:
         06:c2:0f:18:44:fa:26:91:b4:1a:4a:60:3c:43:dc:29:e8:97:
         ba:62:af:22:90:96:77:f3:61:c6:ec:01:5f:a0:07:5c:43:ce:
         76:be:03:04:eb:8c:9c:2a:c6:1b:c4:61:0f:06:5c:c9:55:73:
         79:25:14:c6:55:4b:cf:9a:dd:77:46:b8:fb:7d:d5:0f:7b:ba:
         ae:ee:c0:c3:f5:92:cb:0e:a7:55:d9:ab:92:fe:ce:bf:d5:c6:
         f2:f6:c1:4b:8a:16:2c:48:63:d0:63:ea:bb:e0:7a:fb:dd:9f:
         22:b7:56:01:5e:8c:98:87:ef:c4:93:6e:6d:cd:68:1e:54:5c:
         be:27:94:15:e7:3b:0a:55:9d:71:80:1d:a2:38:bb:3b:70:7d:
         0a:82:c7:26:e2:6f:23:ba:78:35:ad:66:63:93:a0:e0:e9:1d:
         92:c4:0c:8b
-----BEGIN CERTIFICATE-----
MIIDcDCCAligAwIBAgIQS82ke065yplayDQ9+UAaizANBgkqhkiG9w0BAQsFADAW
MRQwEgYDVQQDDAtob3N0b3BlbnZwbjAeFw0xOTAyMTMwOTA1NDBaFw0yMjAxMjgw
OTA1NDBaMBsxGTAXBgNVBAMMEHNlcnZlcmNvbW1vbm5hbWUwggEiMA0GCSqGSIb3
DQEBAQUAA4IBDwAwggEKAoIBAQCov+NV4OdnrOTi6mZcgkh9nLx2IC+cGJSegOFs
R9ynO+YndXtHkmn3pYC4WuxN7rHDOTAYoydtNwzQAKYVRMsHBA7vkjvBSMVH2v8j
RCrQCLGeRbLmRzAAiZK73BSj5tEPHcqAfAB/RWQmPlfNmCzT/TZjjpWpnZv4Lhuj
3xHrzlXZycCyWk/qg9prMmdGEmBd8SKh02W68QouC1C+AWoffBrEV3Vx3AyNK+1O
XVWh2JL2TEcgDwDNDAkSAwJTCcb/rJU08rsbJAgzoR3v0t639Al5TLf6uojVInqs
byM/pC6BKAFG7dom8yFH7oubb+HMtJqrK8B5UlpAToJUcEitAgMBAAGjgbQwgbEw
CQYDVR0TBAIwADAdBgNVHQ4EFgQU75+RxI5sv0wRazLy4geJrqiT4bIwRgYDVR0j
BD8wPYAU2p2cF0owUl4VMqy2HttDieeVbAqhGqQYMBYxFDASBgNVBAMMC2hvc3Rv
cGVudnBuggkAxKfyuSN4AawwEwYDVR0lBAwwCgYIKwYBBQUHAwEwCwYDVR0PBAQD
AgWgMBsGA1UdEQQUMBKCEHNlcnZlcmNvbW1vbm5hbWUwDQYJKoZIhvcNAQELBQAD
ggEBACv06hIhSaf/PeTs8TBn+Hkx927kwfGKvX4XknpoWQgVPj6fH8ppSMUn4yqm
9MAW71je6hgd6UtSSPZ45u8M0Fpdpsq8lnWjZmhWGJHP/A4rxEaKgL/BhpP4DAbC
DxhE+iaRtBpKYDxD3Cnol7piryKQlnfzYcbsAV+gB1xDzna+AwTrjJwqxhvEYQ8G
XMlVc3klFMZVS8+a3XdGuPt91Q97uq7uwMP1kssOp1XZq5L+zr/VxvL2wUuKFixI
Y9Bj6rvgevvdnyK3VgFejJiH78STbm3NaB5UXL4nlBXnOwpVnXGAHaI4uztwfQqC
xybibyO6eDWtZmOToODpHZLEDIs=
-----END CERTIFICATE-----
